target datalayout = "e-m:e-p270:32:32-p271:32:32-p272:64:64-i64:64-i128:128-f80:128-n8:16:32:64-S128"
target triple = "x86_64-pc-linux-gnu"

%struct.WOLFSSL = type <{ ptr, ptr, ptr, ptr, [48 x i8], [48 x i8], ptr, ptr, ptr, ptr, ptr, ptr, ptr, ptr, ptr, ptr, ptr, ptr, ptr, i32, [4 x i8], %struct.WOLFSSL_CIPHER, ptr, %struct.Ciphers, %struct.Ciphers, [8 x i8], %struct.Buffers, ptr, ptr, %struct.WOLFSSL_ALERT_HISTORY, %struct.WOLFSSL_ALERT, i32, i32, i32, i32, i32, i32, i32, i16, [2 x i8], i32, i8, %struct.RecordLayerHeader, %struct.MsgsReceived, %struct.ProtocolVersion, %struct.ProtocolVersion, %struct.CipherSpecs, [2 x i8], %struct.Keys, %struct.Options, ptr, i8, i8, i16, [10 x i16], i8, i8, i16, i16, [38 x i8], i32, i32, [4 x i8], ptr, i8, i8, [6 x i8], ptr, ptr, i16, i8, i8, i32, i8, [3 x i8], i32, %struct.OneTimeAuth, ptr }>
%struct.WOLFSSL_CIPHER = type { i8, i8, ptr }
%struct.Ciphers = type { ptr, ptr, ptr, ptr, i8, i8 }
%struct.Buffers = type { %struct.bufferStatic, %struct.bufferStatic, %struct.WOLFSSL_BUFFER_INFO, %struct.WOLFSSL_BUFFER_INFO, %struct.WOLFSSL_BUFFER_INFO, %struct.WOLFSSL_BUFFER_INFO, i32, i32, i8, i8, i8, i8, %struct.WOLFSSL_BUFFER_INFO, %struct.WOLFSSL_BUFFER_INFO, %struct.WOLFSSL_BUFFER_INFO, %struct.WOLFSSL_BUFFER_INFO, ptr, ptr, ptr, i8, i8, i32, i32, ptr, i32, [1 x ptr] }
%struct.bufferStatic = type { [5 x i8], ptr, i32, i32, i32, i8, i8 }
%struct.WOLFSSL_BUFFER_INFO = type { ptr, i32 }
%struct.WOLFSSL_ALERT_HISTORY = type { %struct.WOLFSSL_ALERT, %struct.WOLFSSL_ALERT }
%struct.WOLFSSL_ALERT = type { i32, i32 }
%struct.RecordLayerHeader = type { i8, i8, i8, [2 x i8] }
%struct.MsgsReceived = type { i32 }
%struct.ProtocolVersion = type { i8, i8 }
%struct.CipherSpecs = type { i16, i16, i16, i16, i8, i8, i8, i8, i8, i8, i8, i8 }
%struct.Keys = type { [64 x i8], [64 x i8], [32 x i8], [32 x i8], [16 x i8], [16 x i8], [8 x i8], [12 x i8], [12 x i8], i32, i32, i32, i32, i32, i32, i8, i8, i8, i8 }
%struct.Options = type { i64, i64, i8, i8, i8, i8, i8, i8, i8, i8, i8, i8, i8, i8, i8, i8, i8, i8, i8, i8, i8, i8, i8, i16, i16, i16, i16, i16, i8 }
%struct.OneTimeAuth = type { ptr, i8 }
%struct.Suites = type { i16, i16, [300 x i8], [38 x i8], i8 }
%struct.CipherSuite = type { i8, i8, i32, ptr, i32 }

; Function Attrs: nounwind uwtable
define i32 @IsAtLeastTLSv1_3(i16 %0) #0 {
  %2 = alloca %struct.ProtocolVersion, align 1
  %3 = alloca i32, align 4
  store i16 %0, ptr %2, align 1
  call void @llvm.lifetime.start.p0(i64 4, ptr %3) #9
  %4 = getelementptr inbounds nuw %struct.ProtocolVersion, ptr %2, i32 0, i32 0
  %5 = load i8, ptr %4, align 1, !tbaa !45
  %6 = zext i8 %5 to i32
  %7 = icmp eq i32 %6, 3
  br i1 %7, label %8, label %13

8:                                                ; preds = %1
  %9 = getelementptr inbounds nuw %struct.ProtocolVersion, ptr %2, i32 0, i32 1
  %10 = load i8, ptr %9, align 1, !tbaa !46
  %11 = zext i8 %10 to i32
  %12 = icmp sge i32 %11, 4
  br label %13

13:                                               ; preds = %8, %1
  %14 = phi i1 [ false, %1 ], [ %12, %8 ]
  %15 = zext i1 %14 to i32
  store i32 %15, ptr %3, align 4, !tbaa !47
  %16 = load i32, ptr %3, align 4, !tbaa !47
  call void @llvm.lifetime.end.p0(i64 4, ptr %3) #9
  ret i32 %16
}

; Function Attrs: nounwind uwtable
define i32 @MatchSuite(ptr noundef %0, ptr noundef %1) #0 {
  %3 = alloca i32, align 4
  %4 = alloca ptr, align 8
  %5 = alloca ptr, align 8
  %6 = alloca i32, align 4
  %7 = alloca %struct.CipherSuite, align 8
  %8 = alloca i32, align 4
  store ptr %0, ptr %4, align 8, !tbaa !3
  store ptr %1, ptr %5, align 8, !tbaa !122
  call void @llvm.lifetime.start.p0(i64 4, ptr %6) #9
  call void @llvm.lifetime.start.p0(i64 24, ptr %7) #9
  call void @llvm.memset.p0.i64(ptr align 8 %7, i8 0, i64 24, i1 false)
  %9 = load ptr, ptr %4, align 8, !tbaa !3
  %10 = load ptr, ptr %5, align 8, !tbaa !122
  %11 = load ptr, ptr %4, align 8, !tbaa !3
  %12 = getelementptr inbounds nuw %struct.WOLFSSL, ptr %11, i32 0, i32 77
  %13 = load ptr, ptr %12, align 8, !tbaa !262
  %14 = call i32 @MatchSuite_ex(ptr noundef %9, ptr noundef %10, ptr noundef %7, ptr noundef %13)
  store i32 %14, ptr %6, align 4, !tbaa !47
  %15 = load i32, ptr %6, align 4, !tbaa !47
  %16 = icmp ne i32 %15, 0
  br i1 %16, label %17, label %19

17:                                               ; preds = %2
  %18 = load i32, ptr %6, align 4, !tbaa !47
  store i32 %18, ptr %3, align 4
  store i32 1, ptr %8, align 4
  br label %102

19:                                               ; preds = %2
  %20 = getelementptr inbounds nuw %struct.CipherSuite, ptr %7, i32 0, i32 0
  %21 = load i8, ptr %20, align 8, !tbaa !516
  %22 = load ptr, ptr %4, align 8, !tbaa !3
  %23 = getelementptr inbounds nuw %struct.WOLFSSL, ptr %22, i32 0, i32 49
  %24 = getelementptr inbounds nuw %struct.Options, ptr %23, i32 0, i32 7
  store i8 %21, ptr %24, align 1, !tbaa !352
  %25 = getelementptr inbounds nuw %struct.CipherSuite, ptr %7, i32 0, i32 1
  %26 = load i8, ptr %25, align 1, !tbaa !519
  %27 = load ptr, ptr %4, align 8, !tbaa !3
  %28 = getelementptr inbounds nuw %struct.WOLFSSL, ptr %27, i32 0, i32 49
  %29 = getelementptr inbounds nuw %struct.Options, ptr %28, i32 0, i32 8
  store i8 %26, ptr %29, align 2, !tbaa !353
  %30 = getelementptr inbounds nuw %struct.CipherSuite, ptr %7, i32 0, i32 2
  %31 = load i32, ptr %30, align 4, !tbaa !520
  %32 = load ptr, ptr %4, align 8, !tbaa !3
  %33 = getelementptr inbounds nuw %struct.WOLFSSL, ptr %32, i32 0, i32 61
  store i32 %31, ptr %33, align 16, !tbaa !160
  %34 = load ptr, ptr %4, align 8, !tbaa !3
  %35 = call i32 @SetCipherSpecs(ptr noundef %34)
  store i32 %35, ptr %6, align 4, !tbaa !47
  %36 = load i32, ptr %6, align 4, !tbaa !47
  %37 = icmp ne i32 %36, 0
  br i1 %37, label %38, label %40

38:                                               ; preds = %19
  %39 = load i32, ptr %6, align 4, !tbaa !47
  store i32 %39, ptr %3, align 4
  store i32 1, ptr %8, align 4
  br label %102

40:                                               ; preds = %19
  %41 = load ptr, ptr %4, align 8, !tbaa !3
  %42 = load ptr, ptr %5, align 8, !tbaa !122
  %43 = getelementptr inbounds nuw %struct.Suites, ptr %42, i32 0, i32 3
  %44 = getelementptr inbounds [38 x i8], ptr %43, i64 0, i64 0
  %45 = load ptr, ptr %5, align 8, !tbaa !122
  %46 = getelementptr inbounds nuw %struct.Suites, ptr %45, i32 0, i32 1
  %47 = load i16, ptr %46, align 2, !tbaa !125
  %48 = zext i16 %47 to i32
  %49 = call i32 @PickHashSigAlgo(ptr noundef %41, ptr noundef %44, i32 noundef %48, i32 noundef 1)
  store i32 %49, ptr %6, align 4, !tbaa !47
  %50 = load i32, ptr %6, align 4, !tbaa !47
  %51 = icmp ne i32 %50, 0
  br i1 %51, label %52, label %54

52:                                               ; preds = %40
  %53 = load i32, ptr %6, align 4, !tbaa !47
  store i32 %53, ptr %3, align 4
  store i32 1, ptr %8, align 4
  br label %102

54:                                               ; preds = %40
  %55 = getelementptr inbounds nuw %struct.CipherSuite, ptr %7, i32 0, i32 4
  %56 = load i32, ptr %55, align 8, !tbaa !521
  %57 = icmp ne i32 %56, 0
  br i1 %57, label %58, label %74

58:                                               ; preds = %54
  %59 = load ptr, ptr %4, align 8, !tbaa !3
  %60 = getelementptr inbounds nuw %struct.WOLFSSL, ptr %59, i32 0, i32 49
  %61 = getelementptr inbounds nuw %struct.Options, ptr %60, i32 0, i32 13
  %62 = load i8, ptr %61, align 1, !tbaa !214
  %63 = zext i8 %62 to i32
  %64 = icmp eq i32 %63, 2
  br i1 %64, label %65, label %66

65:                                               ; preds = %58
  store i32 -425, ptr %3, align 4
  store i32 1, ptr %8, align 4
  br label %102

66:                                               ; preds = %58
  %67 = load ptr, ptr %4, align 8, !tbaa !3
  %68 = getelementptr inbounds nuw %struct.WOLFSSL, ptr %67, i32 0, i32 49
  %69 = getelementptr inbounds nuw %struct.Options, ptr %68, i32 0, i32 13
  store i8 2, ptr %69, align 1, !tbaa !214
  %70 = load ptr, ptr %4, align 8, !tbaa !3
  %71 = load ptr, ptr %4, align 8, !tbaa !3
  %72 = getelementptr inbounds nuw %struct.WOLFSSL, ptr %71, i32 0, i32 77
  %73 = call i32 @TLSX_KeyShare_SetSupported(ptr noundef %70, ptr noundef %72)
  store i32 %73, ptr %3, align 4
  store i32 1, ptr %8, align 4
  br label %102

74:                                               ; preds = %54
  %75 = load ptr, ptr %4, align 8, !tbaa !3
  %76 = getelementptr inbounds nuw %struct.WOLFSSL, ptr %75, i32 0, i32 44
  %77 = load i16, ptr %76, align 2
  %78 = call i32 @IsAtLeastTLSv1_3(i16 %77)
  %79 = icmp ne i32 %78, 0
  br i1 %79, label %80, label %100

80:                                               ; preds = %74
  %81 = load ptr, ptr %4, align 8, !tbaa !3
  %82 = getelementptr inbounds nuw %struct.WOLFSSL, ptr %81, i32 0, i32 49
  %83 = getelementptr inbounds nuw %struct.Options, ptr %82, i32 0, i32 1
  %84 = load i64, ptr %83, align 8
  %85 = lshr i64 %84, 4
  %86 = and i64 %85, 3
  %87 = trunc i64 %86 to i16
  %88 = zext i16 %87 to i32
  %89 = icmp eq i32 %88, 0
  br i1 %89, label %90, label %100

90:                                               ; preds = %80
  %91 = load ptr, ptr %4, align 8, !tbaa !3
  %92 = getelementptr inbounds nuw %struct.CipherSuite, ptr %7, i32 0, i32 3
  %93 = load ptr, ptr %92, align 8, !tbaa !522
  %94 = call i32 @TLSX_KeyShare_Setup(ptr noundef %91, ptr noundef %93)
  store i32 %94, ptr %6, align 4, !tbaa !47
  %95 = load i32, ptr %6, align 4, !tbaa !47
  %96 = icmp ne i32 %95, 0
  br i1 %96, label %97, label %99

97:                                               ; preds = %90
  %98 = load i32, ptr %6, align 4, !tbaa !47
  store i32 %98, ptr %3, align 4
  store i32 1, ptr %8, align 4
  br label %102

99:                                               ; preds = %90
  br label %100

100:                                              ; preds = %99, %80, %74
  %101 = load i32, ptr %6, align 4, !tbaa !47
  store i32 %101, ptr %3, align 4
  store i32 1, ptr %8, align 4
  br label %102

102:                                              ; preds = %100, %97, %66, %65, %52, %38, %17
  call void @llvm.lifetime.end.p0(i64 24, ptr %7) #9
  call void @llvm.lifetime.end.p0(i64 4, ptr %6) #9
  %103 = load i32, ptr %3, align 4
  ret i32 %103
}