; Function Attrs: nounwind uwtable
define i32 @MatchSuite(ptr noundef %0, ptr noundef readonly captures(none) %1) local_unnamed_addr #5 {
  %3 = alloca %struct.CipherSuite, align 8
  call void @llvm.lifetime.start.p0(i64 24, ptr nonnull %3) #26
  call void @llvm.memset.p0.i64(ptr noundef nonnull align 8 dereferenceable(24) %3, i8 0, i64 24, i1 false)
  %4 = getelementptr inbounds nuw i8, ptr %0, i64 1224
  %5 = load ptr, ptr %4, align 8, !tbaa !223
  %6 = call i32 @MatchSuite_ex(ptr noundef %0, ptr noundef %1, ptr noundef nonnull %3, ptr noundef %5)
  %.not = icmp eq i32 %6, 0
  br i1 %.not, label %7, label %48

7:                                                ; preds = %2
  %8 = load i8, ptr %3, align 8, !tbaa !465
  %9 = getelementptr inbounds nuw i8, ptr %0, i64 1037
  store i8 %8, ptr %9, align 1, !tbaa !303
  %10 = getelementptr inbounds nuw i8, ptr %3, i64 1
  %11 = load i8, ptr %10, align 1, !tbaa !466
  %12 = getelementptr inbounds nuw i8, ptr %0, i64 1038
  store i8 %11, ptr %12, align 2, !tbaa !304
  %13 = getelementptr inbounds nuw i8, ptr %3, i64 4
  %14 = load i32, ptr %13, align 4, !tbaa !467
  %15 = getelementptr inbounds nuw i8, ptr %0, i64 1152
  store i32 %14, ptr %15, align 16, !tbaa !125
  %16 = call i32 @SetCipherSpecs(ptr noundef nonnull %0) #26
  %.not32 = icmp eq i32 %16, 0
  br i1 %.not32, label %17, label %48

17:                                               ; preds = %7
  %18 = getelementptr inbounds nuw i8, ptr %1, i64 304
  %19 = getelementptr inbounds nuw i8, ptr %1, i64 2
  %20 = load i16, ptr %19, align 2, !tbaa !102
  %21 = zext i16 %20 to i32
  %22 = call i32 @PickHashSigAlgo(ptr noundef nonnull %0, ptr noundef nonnull %18, i32 noundef %21, i32 noundef 1)
  %.not33 = icmp eq i32 %22, 0
  br i1 %.not33, label %23, label %48

23:                                               ; preds = %17
  %24 = getelementptr inbounds nuw i8, ptr %3, i64 16
  %25 = load i32, ptr %24, align 8, !tbaa !464
  %.not34 = icmp eq i32 %25, 0
  br i1 %.not34, label %32, label %26

26:                                               ; preds = %23
  %27 = getelementptr inbounds nuw i8, ptr %0, i64 1043
  %28 = load i8, ptr %27, align 1, !tbaa !230
  %29 = icmp eq i8 %28, 2
  br i1 %29, label %48, label %30

30:                                               ; preds = %26
  store i8 2, ptr %27, align 1, !tbaa !230
  %31 = call i32 @TLSX_KeyShare_SetSupported(ptr noundef nonnull %0, ptr noundef nonnull %4) #26
  br label %48

32:                                               ; preds = %23
  %33 = getelementptr inbounds nuw i8, ptr %0, i64 710
  %34 = load i16, ptr %33, align 2
  %35 = and i16 %34, 255
  %36 = icmp ne i16 %35, 3
  %37 = icmp ult i16 %34, 1024
  %.not39 = or i1 %37, %36
  br i1 %.not39, label %47, label %38

38:                                               ; preds = %32
  %39 = getelementptr inbounds nuw i8, ptr %0, i64 1024
  %40 = load i64, ptr %39, align 8
  %41 = and i64 %40, 48
  %42 = icmp eq i64 %41, 0
  br i1 %42, label %43, label %47

43:                                               ; preds = %38
  %44 = getelementptr inbounds nuw i8, ptr %3, i64 8
  %45 = load ptr, ptr %44, align 8, !tbaa !461
  %46 = call i32 @TLSX_KeyShare_Setup(ptr noundef nonnull %0, ptr noundef %45) #26
  %.not36 = icmp eq i32 %46, 0
  br i1 %.not36, label %47, label %48

47:                                               ; preds = %43, %38, %32
  br label %48

48:                                               ; preds = %43, %26, %17, %7, %2, %47, %30
  %.026 = phi i32 [ %31, %30 ], [ 0, %47 ], [ %6, %2 ], [ %16, %7 ], [ %22, %17 ], [ -425, %26 ], [ %46, %43 ]
  call void @llvm.lifetime.end.p0(i64 24, ptr nonnull %3) #26
  ret i32 %.026
}